target datalayout = "e-m:e-p270:32:32-p271:32:32-p272:64:64-i64:64-i128:128-f80:128-n8:16:32:64-S128"
target triple = "x86_64-pc-linux-gnu"

@H5_libinit_g = external global i8, align 1
@H5_libterm_g = external global i8, align 1
@.str = private unnamed_addr constant [105 x i8] c"generated/home/dtcxzyw/WorkSpace/Projects/compilers/llvm-opt-benchmark/bench/hdf5/hdf5/src/H5Tcompound.c\00", align 1
@H5E_FUNC_g = external global i64, align 8
@H5E_CANTINIT_g = external global i64, align 8
@.str.1 = private unnamed_addr constant [30 x i8] c"library initialization failed\00", align 1
@H5E_CANTSET_g = external global i64, align 8
@.str.2 = private unnamed_addr constant [22 x i8] c"can't set API context\00", align 1
@H5E_ARGS_g = external global i64, align 8
@H5E_BADTYPE_g = external global i64, align 8
@.str.3 = private unnamed_addr constant [24 x i8] c"not a compound datatype\00", align 1
@H5E_DATATYPE_g = external global i64, align 8
@__func__.H5Tpack = private unnamed_addr constant [8 x i8] c"H5Tpack\00", align 1
@.str.14 = private unnamed_addr constant [33 x i8] c"unable to pack compound datatype\00", align 1

; Function Attrs: nounwind uwtable
define i32 @H5Tpack(i64 noundef %0) #0 {
  %2 = alloca i64, align 8
  %3 = alloca ptr, align 8
  %4 = alloca i32, align 4
  %5 = alloca i8, align 1
  %6 = alloca i8, align 1
  store i64 %0, ptr %2, align 8
  store i32 0, ptr %4, align 4
  store i8 0, ptr %5, align 1
  store i8 0, ptr %6, align 1
  %7 = load i8, ptr @H5_libinit_g, align 1
  %8 = trunc i8 %7 to i1
  br i1 %8, label %13, label %9

9:                                                ; preds = %1
  %10 = load i8, ptr @H5_libterm_g, align 1
  %11 = trunc i8 %10 to i1
  %12 = xor i1 %11, true
  br label %13

13:                                               ; preds = %9, %1
  %14 = phi i1 [ false, %1 ], [ %12, %9 ]
  %15 = xor i1 %14, true
  %16 = xor i1 %15, true
  %17 = zext i1 %16 to i32
  %18 = sext i32 %17 to i64
  %19 = icmp ne i64 %18, 0
  br i1 %19, label %20, label %44

20:                                               ; preds = %13
  %21 = call i32 @H5_init_library()
  %22 = icmp slt i32 %21, 0
  %23 = xor i1 %22, true
  %24 = xor i1 %23, true
  %25 = zext i1 %24 to i32
  %26 = sext i32 %25 to i64
  %27 = icmp ne i64 %26, 0
  br i1 %27, label %28, label %43

28:                                               ; preds = %20
  br label %29

29:                                               ; preds = %28
  br label %30

30:                                               ; preds = %29
  br label %31

31:                                               ; preds = %30
  %32 = load i64, ptr @H5E_FUNC_g, align 8
  %33 = load i64, ptr @H5E_CANTINIT_g, align 8
  %34 = call i32 (ptr, ptr, i32, i64, i64, ptr, ...) @H5E_printf_stack(ptr noundef @.str, ptr noundef @__func__.H5Tpack, i32 noundef 362, i64 noundef %32, i64 noundef %33, ptr noundef @.str.1)
  br label %35

35:                                               ; preds = %31
  store i8 1, ptr %6, align 1
  %36 = load i8, ptr %6, align 1
  %37 = trunc i8 %36 to i1
  %38 = zext i1 %37 to i8
  store i8 %38, ptr %6, align 1
  br label %39

39:                                               ; preds = %35
  br label %40

40:                                               ; preds = %39
  store i32 -1, ptr %4, align 4
  br label %112

41:                                               ; No predecessors!
  br label %42

42:                                               ; preds = %41
  br label %43

43:                                               ; preds = %42, %20
  br label %44

44:                                               ; preds = %43, %13
  %45 = call i32 @H5CX_push()
  %46 = icmp slt i32 %45, 0
  %47 = xor i1 %46, true
  %48 = xor i1 %47, true
  %49 = zext i1 %48 to i32
  %50 = sext i32 %49 to i64
  %51 = icmp ne i64 %50, 0
  br i1 %51, label %52, label %67

52:                                               ; preds = %44
  br label %53

53:                                               ; preds = %52
  br label %54

54:                                               ; preds = %53
  br label %55

55:                                               ; preds = %54
  %56 = load i64, ptr @H5E_FUNC_g, align 8
  %57 = load i64, ptr @H5E_CANTSET_g, align 8
  %58 = call i32 (ptr, ptr, i32, i64, i64, ptr, ...) @H5E_printf_stack(ptr noundef @.str, ptr noundef @__func__.H5Tpack, i32 noundef 362, i64 noundef %56, i64 noundef %57, ptr noundef @.str.2)
  br label %59

59:                                               ; preds = %55
  store i8 1, ptr %6, align 1
  %60 = load i8, ptr %6, align 1
  %61 = trunc i8 %60 to i1
  %62 = zext i1 %61 to i8
  store i8 %62, ptr %6, align 1
  br label %63

63:                                               ; preds = %59
  br label %64

64:                                               ; preds = %63
  store i32 -1, ptr %4, align 4
  br label %112

65:                                               ; No predecessors!
  br label %66

66:                                               ; preds = %65
  br label %68

67:                                               ; preds = %44
  store i8 1, ptr %5, align 1
  br label %68

68:                                               ; preds = %67, %66
  %69 = call i32 @H5E_clear_stack()
  %70 = load i64, ptr %2, align 8
  %71 = call ptr @H5I_object_verify(i64 noundef %70, i32 noundef 3)
  store ptr %71, ptr %3, align 8
  %72 = icmp eq ptr null, %71
  br i1 %72, label %77, label %73

73:                                               ; preds = %68
  %74 = load ptr, ptr %3, align 8
  %75 = call i32 @H5T_detect_class(ptr noundef %74, i32 noundef 6, i1 noundef zeroext true)
  %76 = icmp sle i32 %75, 0
  br i1 %76, label %77, label %92

77:                                               ; preds = %73, %68
  br label %78

78:                                               ; preds = %77
  br label %79

79:                                               ; preds = %78
  br label %80

80:                                               ; preds = %79
  %81 = load i64, ptr @H5E_ARGS_g, align 8
  %82 = load i64, ptr @H5E_BADTYPE_g, align 8
  %83 = call i32 (ptr, ptr, i32, i64, i64, ptr, ...) @H5E_printf_stack(ptr noundef @.str, ptr noundef @__func__.H5Tpack, i32 noundef 367, i64 noundef %81, i64 noundef %82, ptr noundef @.str.3)
  br label %84

84:                                               ; preds = %80
  store i8 1, ptr %6, align 1
  %85 = load i8, ptr %6, align 1
  %86 = trunc i8 %85 to i1
  %87 = zext i1 %86 to i8
  store i8 %87, ptr %6, align 1
  br label %88

88:                                               ; preds = %84
  br label %89

89:                                               ; preds = %88
  store i32 -1, ptr %4, align 4
  br label %112

90:                                               ; No predecessors!
  br label %91

91:                                               ; preds = %90
  br label %92

92:                                               ; preds = %91, %73
  %93 = load ptr, ptr %3, align 8
  %94 = call i32 @H5T__pack(ptr noundef %93)
  %95 = icmp slt i32 %94, 0
  br i1 %95, label %96, label %111

96:                                               ; preds = %92
  br label %97

97:                                               ; preds = %96
  br label %98

98:                                               ; preds = %97
  br label %99

99:                                               ; preds = %98
  %100 = load i64, ptr @H5E_DATATYPE_g, align 8
  %101 = load i64, ptr @H5E_CANTINIT_g, align 8
  %102 = call i32 (ptr, ptr, i32, i64, i64, ptr, ...) @H5E_printf_stack(ptr noundef @.str, ptr noundef @__func__.H5Tpack, i32 noundef 371, i64 noundef %100, i64 noundef %101, ptr noundef @.str.14)
  br label %103

103:                                              ; preds = %99
  store i8 1, ptr %6, align 1
  %104 = load i8, ptr %6, align 1
  %105 = trunc i8 %104 to i1
  %106 = zext i1 %105 to i8
  store i8 %106, ptr %6, align 1
  br label %107

107:                                              ; preds = %103
  br label %108

108:                                              ; preds = %107
  store i32 -1, ptr %4, align 4
  br label %112

109:                                              ; No predecessors!
  br label %110

110:                                              ; preds = %109
  br label %111

111:                                              ; preds = %110, %92
  br label %112

112:                                              ; preds = %111, %108, %89, %64, %40
  %113 = load i8, ptr %5, align 1
  %114 = trunc i8 %113 to i1
  %115 = xor i1 %114, true
  %116 = xor i1 %115, true
  %117 = zext i1 %116 to i32
  %118 = sext i32 %117 to i64
  %119 = icmp ne i64 %118, 0
  br i1 %119, label %120, label %122

120:                                              ; preds = %112
  %121 = call i32 @H5CX_pop(i1 noundef zeroext true)
  store i8 0, ptr %5, align 1
  br label %122

122:                                              ; preds = %120, %112
  %123 = load i8, ptr %6, align 1
  %124 = trunc i8 %123 to i1
  %125 = xor i1 %124, true
  %126 = xor i1 %125, true
  %127 = zext i1 %126 to i32
  %128 = sext i32 %127 to i64
  %129 = icmp ne i64 %128, 0
  br i1 %129, label %130, label %132

130:                                              ; preds = %122
  %131 = call i32 @H5E_dump_api_stack()
  br label %132

132:                                              ; preds = %130, %122
  %133 = load i32, ptr %4, align 4
  ret i32 %133
}