; Function Attrs: nounwind uwtable
define range(i32 -1, 1) i32 @H5Tpack(i64 noundef %0) local_unnamed_addr #0 {
  %2 = load i8, ptr @H5_libinit_g, align 1
  %3 = trunc i8 %2 to i1
  %4 = load i8, ptr @H5_libterm_g, align 1
  %5 = trunc i8 %4 to i1
  %6 = select i1 %3, i1 true, i1 %5
  br i1 %6, label %14, label %7

7:                                                ; preds = %1
  %8 = tail call i32 @H5_init_library() #6
  %9 = icmp slt i32 %8, 0
  br i1 %9, label %10, label %14

10:                                               ; preds = %7
  %11 = load i64, ptr @H5E_FUNC_g, align 8
  %12 = load i64, ptr @H5E_CANTINIT_g, align 8
  %13 = tail call i32 (ptr, ptr, i32, i64, i64, ptr, ...) @H5E_printf_stack(ptr noundef nonnull @.str, ptr noundef nonnull @__func__.H5Tpack, i32 noundef 362, i64 noundef %11, i64 noundef %12, ptr noundef nonnull @.str.1) #6
  br label %.thread20

14:                                               ; preds = %7, %1
  %15 = tail call i32 @H5CX_push() #6
  %16 = icmp slt i32 %15, 0
  br i1 %16, label %17, label %21

17:                                               ; preds = %14
  %18 = load i64, ptr @H5E_FUNC_g, align 8
  %19 = load i64, ptr @H5E_CANTSET_g, align 8
  %20 = tail call i32 (ptr, ptr, i32, i64, i64, ptr, ...) @H5E_printf_stack(ptr noundef nonnull @.str, ptr noundef nonnull @__func__.H5Tpack, i32 noundef 362, i64 noundef %18, i64 noundef %19, ptr noundef nonnull @.str.2) #6
  br label %.thread20

21:                                               ; preds = %14
  %22 = tail call i32 @H5E_clear_stack() #6
  %23 = tail call ptr @H5I_object_verify(i64 noundef %0, i32 noundef 3) #6
  %24 = icmp eq ptr %23, null
  br i1 %24, label %28, label %25

25:                                               ; preds = %21
  %26 = tail call i32 @H5T_detect_class(ptr noundef nonnull %23, i32 noundef 6, i1 noundef zeroext true) #6
  %27 = icmp slt i32 %26, 1
  br i1 %27, label %28, label %32

28:                                               ; preds = %21, %25
  %29 = load i64, ptr @H5E_ARGS_g, align 8
  %30 = load i64, ptr @H5E_BADTYPE_g, align 8
  %31 = tail call i32 (ptr, ptr, i32, i64, i64, ptr, ...) @H5E_printf_stack(ptr noundef nonnull @.str, ptr noundef nonnull @__func__.H5Tpack, i32 noundef 367, i64 noundef %29, i64 noundef %30, ptr noundef nonnull @.str.3) #6
  br label %.thread26

32:                                               ; preds = %25
  %33 = tail call fastcc i32 @H5T__pack(ptr noundef nonnull %23)
  %34 = icmp slt i32 %33, 0
  br i1 %34, label %35, label %40

35:                                               ; preds = %32
  %36 = load i64, ptr @H5E_DATATYPE_g, align 8
  %37 = load i64, ptr @H5E_CANTINIT_g, align 8
  %38 = tail call i32 (ptr, ptr, i32, i64, i64, ptr, ...) @H5E_printf_stack(ptr noundef nonnull @.str, ptr noundef nonnull @__func__.H5Tpack, i32 noundef 371, i64 noundef %36, i64 noundef %37, ptr noundef nonnull @.str.14) #6
  br label %.thread26

.thread26:                                        ; preds = %35, %28
  %39 = tail call i32 @H5CX_pop(i1 noundef zeroext true) #6
  br label %.thread20

40:                                               ; preds = %32
  %41 = tail call i32 @H5CX_pop(i1 noundef zeroext true) #6
  br label %43

.thread20:                                        ; preds = %17, %10, %.thread26
  %42 = tail call i32 @H5E_dump_api_stack() #6
  br label %43

43:                                               ; preds = %40, %.thread20
  %.0101523 = phi i32 [ -1, %.thread20 ], [ 0, %40 ]
  ret i32 %.0101523
}